target datalayout = "e-m:e-p270:32:32-p271:32:32-p272:64:64-i64:64-i128:128-f80:128-n8:16:32:64-S128"
target triple = "x86_64-pc-linux-gnu"

%struct.CompressLegacyState = type { i32 }

@g_displayLevel = internal global i32 0, align 4
@stderr = external global ptr, align 8
@.str = private unnamed_addr constant [12 x i8] c"Error %i : \00", align 1
@.str.2 = private unnamed_addr constant [3 x i8] c" \0A\00", align 1
@.str.48 = private unnamed_addr constant [22 x i8] c"HC compression failed\00", align 1

; Function Attrs: nounwind uwtable
define internal void @LZ4IO_writeLE32(ptr noundef %0, i32 noundef %1) #0 {
  %3 = alloca ptr, align 8
  %4 = alloca i32, align 4
  %5 = alloca ptr, align 8
  store ptr %0, ptr %3, align 8, !tbaa !41
  store i32 %1, ptr %4, align 4, !tbaa !9
  call void @llvm.lifetime.start.p0(i64 8, ptr %5) #13
  %6 = load ptr, ptr %3, align 8, !tbaa !41
  store ptr %6, ptr %5, align 8, !tbaa !31
  %7 = load i32, ptr %4, align 4, !tbaa !9
  %8 = trunc i32 %7 to i8
  %9 = load ptr, ptr %5, align 8, !tbaa !31
  %10 = getelementptr inbounds i8, ptr %9, i64 0
  store i8 %8, ptr %10, align 1, !tbaa !78
  %11 = load i32, ptr %4, align 4, !tbaa !9
  %12 = lshr i32 %11, 8
  %13 = trunc i32 %12 to i8
  %14 = load ptr, ptr %5, align 8, !tbaa !31
  %15 = getelementptr inbounds i8, ptr %14, i64 1
  store i8 %13, ptr %15, align 1, !tbaa !78
  %16 = load i32, ptr %4, align 4, !tbaa !9
  %17 = lshr i32 %16, 16
  %18 = trunc i32 %17 to i8
  %19 = load ptr, ptr %5, align 8, !tbaa !31
  %20 = getelementptr inbounds i8, ptr %19, i64 2
  store i8 %18, ptr %20, align 1, !tbaa !78
  %21 = load i32, ptr %4, align 4, !tbaa !9
  %22 = lshr i32 %21, 24
  %23 = trunc i32 %22 to i8
  %24 = load ptr, ptr %5, align 8, !tbaa !31
  %25 = getelementptr inbounds i8, ptr %24, i64 3
  store i8 %23, ptr %25, align 1, !tbaa !78
  call void @llvm.lifetime.end.p0(i64 8, ptr %5) #13
  ret void
}

; Function Attrs: nounwind uwtable
define internal i64 @LZ4IO_compressBlockLegacy_HC(ptr noundef %0, ptr noundef %1, i64 noundef %2, ptr noundef %3, i64 noundef %4, i64 noundef %5) #0 {
  %7 = alloca ptr, align 8
  %8 = alloca ptr, align 8
  %9 = alloca i64, align 8
  %10 = alloca ptr, align 8
  %11 = alloca i64, align 8
  %12 = alloca i64, align 8
  %13 = alloca ptr, align 8
  %14 = alloca i32, align 4
  %15 = alloca i32, align 4
  store ptr %0, ptr %7, align 8, !tbaa !41
  store ptr %1, ptr %8, align 8, !tbaa !41
  store i64 %2, ptr %9, align 8, !tbaa !32
  store ptr %3, ptr %10, align 8, !tbaa !41
  store i64 %4, ptr %11, align 8, !tbaa !32
  store i64 %5, ptr %12, align 8, !tbaa !32
  call void @llvm.lifetime.start.p0(i64 8, ptr %13) #13
  %16 = load ptr, ptr %7, align 8, !tbaa !41
  store ptr %16, ptr %13, align 8, !tbaa !41
  call void @llvm.lifetime.start.p0(i64 4, ptr %14) #13
  %17 = load ptr, ptr %13, align 8, !tbaa !41
  %18 = getelementptr inbounds nuw %struct.CompressLegacyState, ptr %17, i32 0, i32 0
  %19 = load i32, ptr %18, align 4, !tbaa !47
  store i32 %19, ptr %14, align 4, !tbaa !9
  call void @llvm.lifetime.start.p0(i64 4, ptr %15) #13
  %20 = load ptr, ptr %10, align 8, !tbaa !41
  %21 = load ptr, ptr %8, align 8, !tbaa !41
  %22 = getelementptr inbounds i8, ptr %21, i64 4
  %23 = load i64, ptr %11, align 8, !tbaa !32
  %24 = trunc i64 %23 to i32
  %25 = load i64, ptr %9, align 8, !tbaa !32
  %26 = trunc i64 %25 to i32
  %27 = load i32, ptr %14, align 4, !tbaa !9
  %28 = call i32 @LZ4_compress_HC(ptr noundef %20, ptr noundef %22, i32 noundef %24, i32 noundef %26, i32 noundef %27)
  store i32 %28, ptr %15, align 4, !tbaa !9
  %29 = load i32, ptr %15, align 4, !tbaa !9
  %30 = icmp slt i32 %29, 0
  br i1 %30, label %31, label %69

31:                                               ; preds = %6
  %32 = load i32, ptr @g_displayLevel, align 4, !tbaa !9
  %33 = icmp sge i32 %32, 1
  br i1 %33, label %34, label %43

34:                                               ; preds = %31
  %35 = load ptr, ptr @stderr, align 8, !tbaa !11
  %36 = call i32 (ptr, ptr, ...) @fprintf(ptr noundef %35, ptr noundef @.str, i32 noundef 52) #13
  %37 = load i32, ptr @g_displayLevel, align 4, !tbaa !9
  %38 = icmp sge i32 %37, 4
  br i1 %38, label %39, label %42

39:                                               ; preds = %34
  %40 = load ptr, ptr @stderr, align 8, !tbaa !11
  %41 = call i32 @fflush(ptr noundef %40)
  br label %42

42:                                               ; preds = %39, %34
  br label %43

43:                                               ; preds = %42, %31
  %44 = load i32, ptr @g_displayLevel, align 4, !tbaa !9
  %45 = icmp sge i32 %44, 1
  br i1 %45, label %46, label %55

46:                                               ; preds = %43
  %47 = load ptr, ptr @stderr, align 8, !tbaa !11
  %48 = call i32 (ptr, ptr, ...) @fprintf(ptr noundef %47, ptr noundef @.str.48) #13
  %49 = load i32, ptr @g_displayLevel, align 4, !tbaa !9
  %50 = icmp sge i32 %49, 4
  br i1 %50, label %51, label %54

51:                                               ; preds = %46
  %52 = load ptr, ptr @stderr, align 8, !tbaa !11
  %53 = call i32 @fflush(ptr noundef %52)
  br label %54

54:                                               ; preds = %51, %46
  br label %55

55:                                               ; preds = %54, %43
  %56 = load i32, ptr @g_displayLevel, align 4, !tbaa !9
  %57 = icmp sge i32 %56, 1
  br i1 %57, label %58, label %67

58:                                               ; preds = %55
  %59 = load ptr, ptr @stderr, align 8, !tbaa !11
  %60 = call i32 (ptr, ptr, ...) @fprintf(ptr noundef %59, ptr noundef @.str.2) #13
  %61 = load i32, ptr @g_displayLevel, align 4, !tbaa !9
  %62 = icmp sge i32 %61, 4
  br i1 %62, label %63, label %66

63:                                               ; preds = %58
  %64 = load ptr, ptr @stderr, align 8, !tbaa !11
  %65 = call i32 @fflush(ptr noundef %64)
  br label %66

66:                                               ; preds = %63, %58
  br label %67

67:                                               ; preds = %66, %55
  %68 = call i32 @fflush(ptr noundef null)
  call void @exit(i32 noundef 52) #15
  unreachable

69:                                               ; preds = %6
  %70 = load ptr, ptr %8, align 8, !tbaa !41
  %71 = load i32, ptr %15, align 4, !tbaa !9
  call void @LZ4IO_writeLE32(ptr noundef %70, i32 noundef %71)
  %72 = load i32, ptr %15, align 4, !tbaa !9
  %73 = sext i32 %72 to i64
  %74 = add i64 %73, 4
  call void @llvm.lifetime.end.p0(i64 4, ptr %15) #13
  call void @llvm.lifetime.end.p0(i64 4, ptr %14) #13
  call void @llvm.lifetime.end.p0(i64 8, ptr %13) #13
  ret i64 %74
}