; Function Attrs: nounwind uwtable
define internal range(i64 4, 2147483652) i64 @LZ4IO_compressBlockLegacy_HC(ptr noundef readonly captures(none) %0, ptr noundef %1, i64 noundef %2, ptr noundef %3, i64 noundef %4, i64 %5) #11 {
  %7 = load i32, ptr %0, align 4, !tbaa !42
  %8 = getelementptr inbounds nuw i8, ptr %1, i64 4
  %9 = trunc i64 %4 to i32
  %10 = trunc i64 %2 to i32
  %11 = tail call i32 @LZ4_compress_HC(ptr noundef %3, ptr noundef nonnull %8, i32 noundef %9, i32 noundef %10, i32 noundef %7) #24
  %12 = icmp slt i32 %11, 0
  br i1 %12, label %13, label %46

13:                                               ; preds = %6
  %14 = load i32, ptr @g_displayLevel, align 4, !tbaa !4
  %15 = icmp sgt i32 %14, 0
  br i1 %15, label %16, label %.thread11

16:                                               ; preds = %13
  %17 = load ptr, ptr @stderr, align 8, !tbaa !8
  %18 = tail call i32 (ptr, ptr, ...) @fprintf(ptr noundef %17, ptr noundef nonnull @.str, i32 noundef 52) #26
  %19 = load i32, ptr @g_displayLevel, align 4, !tbaa !4
  %20 = icmp sgt i32 %19, 3
  br i1 %20, label %21, label %24

21:                                               ; preds = %16
  %22 = load ptr, ptr @stderr, align 8, !tbaa !8
  %23 = tail call i32 @fflush(ptr noundef %22)
  %.pr = load i32, ptr @g_displayLevel, align 4, !tbaa !4
  br label %24

24:                                               ; preds = %16, %21
  %25 = phi i32 [ %19, %16 ], [ %.pr, %21 ]
  %26 = icmp sgt i32 %25, 0
  br i1 %26, label %27, label %.thread11

27:                                               ; preds = %24
  %28 = load ptr, ptr @stderr, align 8, !tbaa !8
  %29 = tail call i64 @fwrite(ptr nonnull @.str.48, i64 21, i64 1, ptr %28) #27
  %30 = load i32, ptr @g_displayLevel, align 4, !tbaa !4
  %31 = icmp sgt i32 %30, 3
  br i1 %31, label %32, label %thread-pre-split

32:                                               ; preds = %27
  %33 = load ptr, ptr @stderr, align 8, !tbaa !8
  %34 = tail call i32 @fflush(ptr noundef %33)
  %.pr10.pre = load i32, ptr @g_displayLevel, align 4, !tbaa !4
  br label %thread-pre-split

thread-pre-split:                                 ; preds = %32, %27
  %35 = phi i32 [ %30, %27 ], [ %.pr10.pre, %32 ]
  %36 = icmp sgt i32 %35, 0
  br i1 %36, label %37, label %.thread11

37:                                               ; preds = %thread-pre-split
  %38 = load ptr, ptr @stderr, align 8, !tbaa !8
  %39 = tail call i64 @fwrite(ptr nonnull @.str.2, i64 2, i64 1, ptr %38) #27
  %40 = load i32, ptr @g_displayLevel, align 4, !tbaa !4
  %41 = icmp sgt i32 %40, 3
  br i1 %41, label %42, label %.thread11

42:                                               ; preds = %37
  %43 = load ptr, ptr @stderr, align 8, !tbaa !8
  %44 = tail call i32 @fflush(ptr noundef %43)
  br label %.thread11

.thread11:                                        ; preds = %24, %13, %37, %42, %thread-pre-split
  %45 = tail call i32 @fflush(ptr noundef null)
  tail call void @exit(i32 noundef 52) #28
  unreachable

46:                                               ; preds = %6
  %47 = trunc i32 %11 to i8
  store i8 %47, ptr %1, align 1, !tbaa !40
  %48 = lshr i32 %11, 8
  %49 = trunc i32 %48 to i8
  %50 = getelementptr inbounds nuw i8, ptr %1, i64 1
  store i8 %49, ptr %50, align 1, !tbaa !40
  %51 = lshr i32 %11, 16
  %52 = trunc i32 %51 to i8
  %53 = getelementptr inbounds nuw i8, ptr %1, i64 2
  store i8 %52, ptr %53, align 1, !tbaa !40
  %54 = lshr i32 %11, 24
  %55 = trunc nuw i32 %54 to i8
  %56 = getelementptr inbounds nuw i8, ptr %1, i64 3
  store i8 %55, ptr %56, align 1, !tbaa !40
  %narrow = add nuw i32 %11, 4
  %57 = zext i32 %narrow to i64
  ret i64 %57
}